; Function Attrs: mustprogress uwtable
define noundef i32 @_ZN6icu_7716BytesTrieBuilder12writeDeltaToEi(ptr noundef nonnull align 8 dereferenceable(56) %0, i32 noundef %1) unnamed_addr #1 align 2 {
  %3 = alloca [5 x i8], align 1
  %4 = getelementptr inbounds nuw i8, ptr %0, i64 52
  %5 = load i32, ptr %4, align 4, !tbaa !32
  %6 = sub nsw i32 %5, %1
  %7 = icmp slt i32 %6, 192
  br i1 %7, label %8, label %13

8:                                                ; preds = %2
  %9 = load ptr, ptr %0, align 8, !tbaa !21
  %10 = getelementptr inbounds nuw i8, ptr %9, i64 120
  %11 = load ptr, ptr %10, align 8
  %12 = tail call noundef i32 %11(ptr noundef nonnull align 8 dereferenceable(56) %0, i32 noundef %6)
  br label %78

13:                                               ; preds = %2
  call void @llvm.lifetime.start.p0(i64 5, ptr nonnull %3) #19
  %14 = icmp samesign ult i32 %6, 12288
  br i1 %14, label %15, label %19

15:                                               ; preds = %13
  %16 = lshr i32 %6, 8
  %17 = trunc nuw i32 %16 to i8
  %18 = or disjoint i8 %17, -64
  store i8 %18, ptr %3, align 1, !tbaa !20
  br label %_ZN6icu_7716BytesTrieBuilder19internalEncodeDeltaEiPc.exit

19:                                               ; preds = %13
  %20 = icmp samesign ult i32 %6, 917504
  br i1 %20, label %21, label %25

21:                                               ; preds = %19
  %22 = lshr i32 %6, 16
  %23 = trunc nuw i32 %22 to i8
  %24 = or disjoint i8 %23, -16
  store i8 %24, ptr %3, align 1, !tbaa !20
  br label %37

25:                                               ; preds = %19
  %26 = icmp samesign ult i32 %6, 16777216
  br i1 %26, label %31, label %27

27:                                               ; preds = %25
  %28 = lshr i32 %6, 24
  %29 = trunc nuw i32 %28 to i8
  %30 = getelementptr inbounds nuw i8, ptr %3, i64 1
  store i8 %29, ptr %30, align 1, !tbaa !20
  br label %31

31:                                               ; preds = %27, %25
  %.sink.i = phi i8 [ -1, %27 ], [ -2, %25 ]
  %.2.i = phi i32 [ 2, %27 ], [ 1, %25 ]
  store i8 %.sink.i, ptr %3, align 1, !tbaa !20
  %32 = lshr i32 %6, 16
  %33 = trunc i32 %32 to i8
  %34 = add nuw nsw i32 %.2.i, 1
  %35 = zext nneg i32 %.2.i to i64
  %36 = getelementptr inbounds nuw i8, ptr %3, i64 %35
  store i8 %33, ptr %36, align 1, !tbaa !20
  br label %37

37:                                               ; preds = %31, %21
  %.1.i = phi i32 [ 1, %21 ], [ %34, %31 ]
  %38 = lshr i32 %6, 8
  %39 = trunc i32 %38 to i8
  %40 = add nuw nsw i32 %.1.i, 1
  %41 = zext nneg i32 %.1.i to i64
  %42 = getelementptr inbounds nuw i8, ptr %3, i64 %41
  store i8 %39, ptr %42, align 1, !tbaa !20
  br label %_ZN6icu_7716BytesTrieBuilder19internalEncodeDeltaEiPc.exit

_ZN6icu_7716BytesTrieBuilder19internalEncodeDeltaEiPc.exit: ; preds = %15, %37
  %.0.i = phi i32 [ 1, %15 ], [ %40, %37 ]
  %43 = trunc i32 %6 to i8
  %44 = add nuw nsw i32 %.0.i, 1
  %45 = zext nneg i32 %.0.i to i64
  %46 = getelementptr inbounds nuw i8, ptr %3, i64 %45
  store i8 %43, ptr %46, align 1, !tbaa !20
  %47 = add nsw i32 %44, %5
  %48 = getelementptr inbounds nuw i8, ptr %0, i64 40
  %49 = load ptr, ptr %48, align 8, !tbaa !31
  %50 = icmp eq ptr %49, null
  br i1 %50, label %_ZN6icu_7716BytesTrieBuilder5writeEPKci.exit, label %51

51:                                               ; preds = %_ZN6icu_7716BytesTrieBuilder19internalEncodeDeltaEiPc.exit
  %52 = getelementptr inbounds nuw i8, ptr %0, i64 48
  %53 = load i32, ptr %52, align 8, !tbaa !35
  %54 = icmp sgt i32 %47, %53
  br i1 %54, label %.preheader.i.i, label %_ZN6icu_7716BytesTrieBuilder14ensureCapacityEi.exit.thread7.i

.preheader.i.i:                                   ; preds = %51, %.preheader.i.i
  %.013.i.i = phi i32 [ %55, %.preheader.i.i ], [ %53, %51 ]
  %55 = shl nsw i32 %.013.i.i, 1
  %.not.i.i = icmp sgt i32 %55, %47
  br i1 %.not.i.i, label %56, label %.preheader.i.i, !llvm.loop !60

56:                                               ; preds = %.preheader.i.i
  %57 = sext i32 %55 to i64
  %58 = tail call noalias ptr @uprv_malloc_77(i64 noundef %57) #20
  %59 = icmp eq ptr %58, null
  br i1 %59, label %_ZN6icu_7716BytesTrieBuilder14ensureCapacityEi.exit.thread10.i, label %_ZN6icu_7716BytesTrieBuilder14ensureCapacityEi.exit.i

_ZN6icu_7716BytesTrieBuilder14ensureCapacityEi.exit.thread10.i: ; preds = %56
  %60 = load ptr, ptr %48, align 8, !tbaa !31
  tail call void @uprv_free_77(ptr noundef %60)
  store ptr null, ptr %48, align 8, !tbaa !31
  store i32 0, ptr %52, align 8, !tbaa !35
  br label %_ZN6icu_7716BytesTrieBuilder5writeEPKci.exit

_ZN6icu_7716BytesTrieBuilder14ensureCapacityEi.exit.i: ; preds = %56
  %61 = load i32, ptr %4, align 4, !tbaa !32
  %62 = sub nsw i32 %55, %61
  %63 = sext i32 %62 to i64
  %64 = getelementptr inbounds i8, ptr %58, i64 %63
  %65 = load ptr, ptr %48, align 8, !tbaa !31
  %66 = load i32, ptr %52, align 8, !tbaa !35
  %67 = sub nsw i32 %66, %61
  %68 = sext i32 %67 to i64
  %69 = getelementptr inbounds i8, ptr %65, i64 %68
  %70 = sext i32 %61 to i64
  tail call void @llvm.memcpy.p0.p0.i64(ptr nonnull align 1 %64, ptr align 1 %69, i64 %70, i1 false)
  tail call void @uprv_free_77(ptr noundef %65)
  store ptr %58, ptr %48, align 8, !tbaa !31
  store i32 %55, ptr %52, align 8, !tbaa !35
  br label %_ZN6icu_7716BytesTrieBuilder14ensureCapacityEi.exit.thread7.i

_ZN6icu_7716BytesTrieBuilder14ensureCapacityEi.exit.thread7.i: ; preds = %_ZN6icu_7716BytesTrieBuilder14ensureCapacityEi.exit.i, %51
  %71 = phi i32 [ %53, %51 ], [ %55, %_ZN6icu_7716BytesTrieBuilder14ensureCapacityEi.exit.i ]
  %72 = phi ptr [ %49, %51 ], [ %58, %_ZN6icu_7716BytesTrieBuilder14ensureCapacityEi.exit.i ]
  store i32 %47, ptr %4, align 4, !tbaa !32
  %73 = sub nsw i32 %71, %47
  %74 = sext i32 %73 to i64
  %75 = getelementptr inbounds i8, ptr %72, i64 %74
  %76 = zext nneg i32 %44 to i64
  call void @llvm.memcpy.p0.p0.i64(ptr noundef nonnull align 1 dereferenceable(1) %75, ptr noundef nonnull readonly align 1 dereferenceable(1) %3, i64 %76, i1 false)
  br label %_ZN6icu_7716BytesTrieBuilder5writeEPKci.exit

_ZN6icu_7716BytesTrieBuilder5writeEPKci.exit:     ; preds = %_ZN6icu_7716BytesTrieBuilder19internalEncodeDeltaEiPc.exit, %_ZN6icu_7716BytesTrieBuilder14ensureCapacityEi.exit.thread10.i, %_ZN6icu_7716BytesTrieBuilder14ensureCapacityEi.exit.thread7.i
  %77 = load i32, ptr %4, align 4, !tbaa !32
  call void @llvm.lifetime.end.p0(i64 5, ptr nonnull %3) #19
  br label %78

78:                                               ; preds = %_ZN6icu_7716BytesTrieBuilder5writeEPKci.exit, %8
  %.0 = phi i32 [ %12, %8 ], [ %77, %_ZN6icu_7716BytesTrieBuilder5writeEPKci.exit ]
  ret i32 %.0
}